target datalayout = "e-m:e-p270:32:32-p271:32:32-p272:64:64-i64:64-i128:128-f80:128-n8:16:32:64-S128"
target triple = "x86_64-pc-linux-gnu"

%class.btConvexHullInternal = type { %class.btVector3, %class.btVector3, %"class.btConvexHullInternal::Pool", %"class.btConvexHullInternal::Pool.0", %"class.btConvexHullInternal::Pool.2", %class.btAlignedObjectArray, i32, i32, i32, i32, i32, i32, ptr }
%class.btVector3 = type { [4 x float] }
%"class.btConvexHullInternal::Pool" = type <{ ptr, ptr, ptr, i32, [4 x i8] }>
%"class.btConvexHullInternal::Pool.0" = type <{ ptr, ptr, ptr, i32, [4 x i8] }>
%"class.btConvexHullInternal::Pool.2" = type <{ ptr, ptr, ptr, i32, [4 x i8] }>
%class.btAlignedObjectArray = type <{ [4 x i8], i32, i32, [4 x i8], ptr, i8, [7 x i8] }>
%"class.btConvexHullInternal::Edge" = type <{ ptr, ptr, ptr, ptr, ptr, i32, [4 x i8] }>
%"class.btConvexHullInternal::PoolArray.14" = type { ptr, i32, ptr }

; Function Attrs: mustprogress nounwind uwtable
define linkonce_odr dso_local noundef ptr @_ZN20btConvexHullInternal9PoolArrayINS_4EdgeEE4initEv(ptr noundef nonnull align 8 dereferenceable(24) %0) #1 comdat align 2 {
  %2 = alloca ptr, align 8
  %3 = alloca ptr, align 8
  %4 = alloca i32, align 4
  store ptr %0, ptr %2, align 8, !tbaa !68
  %5 = load ptr, ptr %2, align 8
  call void @llvm.lifetime.start.p0(i64 8, ptr %3) #13
  %6 = getelementptr inbounds nuw %"class.btConvexHullInternal::PoolArray.14", ptr %5, i32 0, i32 0
  %7 = load ptr, ptr %6, align 8, !tbaa !275
  store ptr %7, ptr %3, align 8, !tbaa !42
  call void @llvm.lifetime.start.p0(i64 4, ptr %4) #13
  store i32 0, ptr %4, align 4, !tbaa !9
  br label %8

8:                                                ; preds = %28, %1
  %9 = load i32, ptr %4, align 4, !tbaa !9
  %10 = getelementptr inbounds nuw %"class.btConvexHullInternal::PoolArray.14", ptr %5, i32 0, i32 1
  %11 = load i32, ptr %10, align 8, !tbaa !277
  %12 = icmp slt i32 %9, %11
  br i1 %12, label %14, label %13

13:                                               ; preds = %8
  call void @llvm.lifetime.end.p0(i64 4, ptr %4) #13
  br label %33

14:                                               ; preds = %8
  %15 = load i32, ptr %4, align 4, !tbaa !9
  %16 = add nsw i32 %15, 1
  %17 = getelementptr inbounds nuw %"class.btConvexHullInternal::PoolArray.14", ptr %5, i32 0, i32 1
  %18 = load i32, ptr %17, align 8, !tbaa !277
  %19 = icmp slt i32 %16, %18
  br i1 %19, label %20, label %23

20:                                               ; preds = %14
  %21 = load ptr, ptr %3, align 8, !tbaa !42
  %22 = getelementptr inbounds %"class.btConvexHullInternal::Edge", ptr %21, i64 1
  br label %24

23:                                               ; preds = %14
  br label %24

24:                                               ; preds = %23, %20
  %25 = phi ptr [ %22, %20 ], [ null, %23 ]
  %26 = load ptr, ptr %3, align 8, !tbaa !42
  %27 = getelementptr inbounds nuw %"class.btConvexHullInternal::Edge", ptr %26, i32 0, i32 0
  store ptr %25, ptr %27, align 8, !tbaa !73
  br label %28

28:                                               ; preds = %24
  %29 = load i32, ptr %4, align 4, !tbaa !9
  %30 = add nsw i32 %29, 1
  store i32 %30, ptr %4, align 4, !tbaa !9
  %31 = load ptr, ptr %3, align 8, !tbaa !42
  %32 = getelementptr inbounds nuw %"class.btConvexHullInternal::Edge", ptr %31, i32 1
  store ptr %32, ptr %3, align 8, !tbaa !42
  br label %8, !llvm.loop !278

33:                                               ; preds = %13
  %34 = getelementptr inbounds nuw %"class.btConvexHullInternal::PoolArray.14", ptr %5, i32 0, i32 0
  %35 = load ptr, ptr %34, align 8, !tbaa !275
  call void @llvm.lifetime.end.p0(i64 8, ptr %3) #13
  ret ptr %35
}

; Function Attrs: mustprogress uwtable
define linkonce_odr dso_local void @_ZN20btConvexHullInternal9PoolArrayINS_4EdgeEEC2Ei(ptr noundef nonnull align 8 dereferenceable(24) %0, i32 noundef %1) unnamed_addr #2 comdat align 2 {
  %3 = alloca ptr, align 8
  %4 = alloca i32, align 4
  store ptr %0, ptr %3, align 8, !tbaa !68
  store i32 %1, ptr %4, align 4, !tbaa !9
  %5 = load ptr, ptr %3, align 8
  %6 = getelementptr inbounds nuw %"class.btConvexHullInternal::PoolArray.14", ptr %5, i32 0, i32 1
  %7 = load i32, ptr %4, align 4, !tbaa !9
  store i32 %7, ptr %6, align 8, !tbaa !277
  %8 = getelementptr inbounds nuw %"class.btConvexHullInternal::PoolArray.14", ptr %5, i32 0, i32 2
  store ptr null, ptr %8, align 8, !tbaa !69
  %9 = load i32, ptr %4, align 4, !tbaa !9
  %10 = sext i32 %9 to i64
  %11 = mul i64 48, %10
  %12 = call noundef ptr @_Z22btAlignedAllocInternalmi(i64 noundef %11, i32 noundef 16)
  %13 = getelementptr inbounds nuw %"class.btConvexHullInternal::PoolArray.14", ptr %5, i32 0, i32 0
  store ptr %12, ptr %13, align 8, !tbaa !275
  ret void
}

; Function Attrs: mustprogress uwtable
define linkonce_odr dso_local noundef ptr @_ZN20btConvexHullInternal4PoolINS_4EdgeEE9newObjectEv(ptr noundef nonnull align 8 dereferenceable(28) %0) #2 comdat align 2 {
  %2 = alloca ptr, align 8
  %3 = alloca ptr, align 8
  %4 = alloca ptr, align 8
  store ptr %0, ptr %2, align 8, !tbaa !64
  %5 = load ptr, ptr %2, align 8
  call void @llvm.lifetime.start.p0(i64 8, ptr %3) #13
  %6 = getelementptr inbounds nuw %"class.btConvexHullInternal::Pool.0", ptr %5, i32 0, i32 2
  %7 = load ptr, ptr %6, align 8, !tbaa !66
  store ptr %7, ptr %3, align 8, !tbaa !42
  %8 = load ptr, ptr %3, align 8, !tbaa !42
  %9 = icmp ne ptr %8, null
  br i1 %9, label %33, label %10

10:                                               ; preds = %1
  call void @llvm.lifetime.start.p0(i64 8, ptr %4) #13
  %11 = getelementptr inbounds nuw %"class.btConvexHullInternal::Pool.0", ptr %5, i32 0, i32 1
  %12 = load ptr, ptr %11, align 8, !tbaa !67
  store ptr %12, ptr %4, align 8, !tbaa !68
  %13 = load ptr, ptr %4, align 8, !tbaa !68
  %14 = icmp ne ptr %13, null
  br i1 %14, label %15, label %20

15:                                               ; preds = %10
  %16 = load ptr, ptr %4, align 8, !tbaa !68
  %17 = getelementptr inbounds nuw %"class.btConvexHullInternal::PoolArray.14", ptr %16, i32 0, i32 2
  %18 = load ptr, ptr %17, align 8, !tbaa !69
  %19 = getelementptr inbounds nuw %"class.btConvexHullInternal::Pool.0", ptr %5, i32 0, i32 1
  store ptr %18, ptr %19, align 8, !tbaa !67
  br label %30

20:                                               ; preds = %10
  %21 = call noundef ptr @_Z22btAlignedAllocInternalmi(i64 noundef 24, i32 noundef 16)
  %22 = getelementptr inbounds nuw %"class.btConvexHullInternal::Pool.0", ptr %5, i32 0, i32 3
  %23 = load i32, ptr %22, align 8, !tbaa !71
  call void @_ZN20btConvexHullInternal9PoolArrayINS_4EdgeEEC2Ei(ptr noundef nonnull align 8 dereferenceable(24) %21, i32 noundef %23)
  store ptr %21, ptr %4, align 8, !tbaa !68
  %24 = getelementptr inbounds nuw %"class.btConvexHullInternal::Pool.0", ptr %5, i32 0, i32 0
  %25 = load ptr, ptr %24, align 8, !tbaa !72
  %26 = load ptr, ptr %4, align 8, !tbaa !68
  %27 = getelementptr inbounds nuw %"class.btConvexHullInternal::PoolArray.14", ptr %26, i32 0, i32 2
  store ptr %25, ptr %27, align 8, !tbaa !69
  %28 = load ptr, ptr %4, align 8, !tbaa !68
  %29 = getelementptr inbounds nuw %"class.btConvexHullInternal::Pool.0", ptr %5, i32 0, i32 0
  store ptr %28, ptr %29, align 8, !tbaa !72
  br label %30

30:                                               ; preds = %20, %15
  %31 = load ptr, ptr %4, align 8, !tbaa !68
  %32 = call noundef ptr @_ZN20btConvexHullInternal9PoolArrayINS_4EdgeEE4initEv(ptr noundef nonnull align 8 dereferenceable(24) %31)
  store ptr %32, ptr %3, align 8, !tbaa !42
  call void @llvm.lifetime.end.p0(i64 8, ptr %4) #13
  br label %33

33:                                               ; preds = %30, %1
  %34 = load ptr, ptr %3, align 8, !tbaa !42
  %35 = getelementptr inbounds nuw %"class.btConvexHullInternal::Edge", ptr %34, i32 0, i32 0
  %36 = load ptr, ptr %35, align 8, !tbaa !73
  %37 = getelementptr inbounds nuw %"class.btConvexHullInternal::Pool.0", ptr %5, i32 0, i32 2
  store ptr %36, ptr %37, align 8, !tbaa !66
  %38 = load ptr, ptr %3, align 8, !tbaa !42
  call void @llvm.memset.p0.i64(ptr align 8 %38, i8 0, i64 48, i1 false)
  call void @llvm.lifetime.end.p0(i64 8, ptr %3) #13
  ret ptr %38
}

; Function Attrs: mustprogress uwtable
define dso_local noundef ptr @_ZN20btConvexHullInternal11newEdgePairEPNS_6VertexES1_(ptr noundef nonnull align 8 dereferenceable(192) %0, ptr noundef %1, ptr noundef %2) #2 align 2 {
  %4 = alloca ptr, align 8
  %5 = alloca ptr, align 8
  %6 = alloca ptr, align 8
  %7 = alloca ptr, align 8
  %8 = alloca ptr, align 8
  store ptr %0, ptr %4, align 8, !tbaa !38
  store ptr %1, ptr %5, align 8, !tbaa !40
  store ptr %2, ptr %6, align 8, !tbaa !40
  %9 = load ptr, ptr %4, align 8
  call void @llvm.lifetime.start.p0(i64 8, ptr %7) #13
  %10 = getelementptr inbounds nuw %class.btConvexHullInternal, ptr %9, i32 0, i32 3
  %11 = call noundef ptr @_ZN20btConvexHullInternal4PoolINS_4EdgeEE9newObjectEv(ptr noundef nonnull align 8 dereferenceable(28) %10)
  store ptr %11, ptr %7, align 8, !tbaa !42
  call void @llvm.lifetime.start.p0(i64 8, ptr %8) #13
  %12 = getelementptr inbounds nuw %class.btConvexHullInternal, ptr %9, i32 0, i32 3
  %13 = call noundef ptr @_ZN20btConvexHullInternal4PoolINS_4EdgeEE9newObjectEv(ptr noundef nonnull align 8 dereferenceable(28) %12)
  store ptr %13, ptr %8, align 8, !tbaa !42
  %14 = load ptr, ptr %8, align 8, !tbaa !42
  %15 = load ptr, ptr %7, align 8, !tbaa !42
  %16 = getelementptr inbounds nuw %"class.btConvexHullInternal::Edge", ptr %15, i32 0, i32 2
  store ptr %14, ptr %16, align 8, !tbaa !44
  %17 = load ptr, ptr %7, align 8, !tbaa !42
  %18 = load ptr, ptr %8, align 8, !tbaa !42
  %19 = getelementptr inbounds nuw %"class.btConvexHullInternal::Edge", ptr %18, i32 0, i32 2
  store ptr %17, ptr %19, align 8, !tbaa !44
  %20 = getelementptr inbounds nuw %class.btConvexHullInternal, ptr %9, i32 0, i32 6
  %21 = load i32, ptr %20, align 8, !tbaa !47
  %22 = load ptr, ptr %7, align 8, !tbaa !42
  %23 = getelementptr inbounds nuw %"class.btConvexHullInternal::Edge", ptr %22, i32 0, i32 5
  store i32 %21, ptr %23, align 8, !tbaa !59
  %24 = getelementptr inbounds nuw %class.btConvexHullInternal, ptr %9, i32 0, i32 6
  %25 = load i32, ptr %24, align 8, !tbaa !47
  %26 = load ptr, ptr %8, align 8, !tbaa !42
  %27 = getelementptr inbounds nuw %"class.btConvexHullInternal::Edge", ptr %26, i32 0, i32 5
  store i32 %25, ptr %27, align 8, !tbaa !59
  %28 = load ptr, ptr %6, align 8, !tbaa !40
  %29 = load ptr, ptr %7, align 8, !tbaa !42
  %30 = getelementptr inbounds nuw %"class.btConvexHullInternal::Edge", ptr %29, i32 0, i32 3
  store ptr %28, ptr %30, align 8, !tbaa !60
  %31 = load ptr, ptr %5, align 8, !tbaa !40
  %32 = load ptr, ptr %8, align 8, !tbaa !42
  %33 = getelementptr inbounds nuw %"class.btConvexHullInternal::Edge", ptr %32, i32 0, i32 3
  store ptr %31, ptr %33, align 8, !tbaa !60
  %34 = load ptr, ptr %7, align 8, !tbaa !42
  %35 = getelementptr inbounds nuw %"class.btConvexHullInternal::Edge", ptr %34, i32 0, i32 4
  store ptr null, ptr %35, align 8, !tbaa !61
  %36 = load ptr, ptr %8, align 8, !tbaa !42
  %37 = getelementptr inbounds nuw %"class.btConvexHullInternal::Edge", ptr %36, i32 0, i32 4
  store ptr null, ptr %37, align 8, !tbaa !61
  %38 = getelementptr inbounds nuw %class.btConvexHullInternal, ptr %9, i32 0, i32 10
  %39 = load i32, ptr %38, align 8, !tbaa !62
  %40 = add nsw i32 %39, 1
  store i32 %40, ptr %38, align 8, !tbaa !62
  %41 = getelementptr inbounds nuw %class.btConvexHullInternal, ptr %9, i32 0, i32 10
  %42 = load i32, ptr %41, align 8, !tbaa !62
  %43 = getelementptr inbounds nuw %class.btConvexHullInternal, ptr %9, i32 0, i32 11
  %44 = load i32, ptr %43, align 4, !tbaa !63
  %45 = icmp sgt i32 %42, %44
  br i1 %45, label %46, label %50

46:                                               ; preds = %3
  %47 = getelementptr inbounds nuw %class.btConvexHullInternal, ptr %9, i32 0, i32 10
  %48 = load i32, ptr %47, align 8, !tbaa !62
  %49 = getelementptr inbounds nuw %class.btConvexHullInternal, ptr %9, i32 0, i32 11
  store i32 %48, ptr %49, align 4, !tbaa !63
  br label %50

50:                                               ; preds = %46, %3
  %51 = load ptr, ptr %7, align 8, !tbaa !42
  call void @llvm.lifetime.end.p0(i64 8, ptr %8) #13
  call void @llvm.lifetime.end.p0(i64 8, ptr %7) #13
  ret ptr %51
}